; Function Attrs: nounwind uwtable
define dso_local void @nghttp2_hd_deflate_del(ptr noundef %0) local_unnamed_addr #0 {
  %2 = getelementptr inbounds nuw i8, ptr %0, i64 32
  %3 = load ptr, ptr %2, align 8, !tbaa !82
  %4 = getelementptr inbounds nuw i8, ptr %0, i64 24
  %5 = load i64, ptr %4, align 8, !tbaa !62
  %.not.i.i.i = icmp eq i64 %5, 0
  br i1 %.not.i.i.i, label %nghttp2_hd_deflate_free.exit, label %.lr.ph.i.i.i

.lr.ph.i.i.i:                                     ; preds = %1
  %6 = getelementptr inbounds nuw i8, ptr %0, i64 16
  %7 = getelementptr inbounds nuw i8, ptr %0, i64 8
  br label %8

8:                                                ; preds = %8, %.lr.ph.i.i.i
  %.011.i.i.i = phi i64 [ 0, %.lr.ph.i.i.i ], [ %19, %8 ]
  %9 = load ptr, ptr %0, align 8, !tbaa !40
  %10 = load i64, ptr %6, align 8, !tbaa !63
  %11 = add i64 %10, %.011.i.i.i
  %12 = load i64, ptr %7, align 8, !tbaa !41
  %13 = and i64 %11, %12
  %14 = getelementptr inbounds nuw ptr, ptr %9, i64 %13
  %15 = load ptr, ptr %14, align 8, !tbaa !64
  %16 = getelementptr inbounds nuw i8, ptr %15, i64 8
  %17 = load ptr, ptr %16, align 8, !tbaa !33
  tail call void @nghttp2_rcbuf_decref(ptr noundef %17) #13
  %18 = load ptr, ptr %15, align 8, !tbaa !32
  tail call void @nghttp2_rcbuf_decref(ptr noundef %18) #13
  tail call void @nghttp2_mem_free(ptr noundef %3, ptr noundef nonnull %15) #13
  %19 = add nuw i64 %.011.i.i.i, 1
  %20 = load i64, ptr %4, align 8, !tbaa !62
  %21 = icmp ult i64 %19, %20
  br i1 %21, label %8, label %nghttp2_hd_deflate_free.exit, !llvm.loop !65

nghttp2_hd_deflate_free.exit:                     ; preds = %8, %1
  %22 = load ptr, ptr %0, align 8, !tbaa !40
  tail call void @nghttp2_mem_free(ptr noundef %3, ptr noundef %22) #13
  tail call void @nghttp2_mem_free(ptr noundef %3, ptr noundef nonnull %0) #13
  ret void
}